; Function Attrs: mustprogress nofree norecurse nosync nounwind willreturn memory(read, inaccessiblemem: none) uwtable
define hidden noundef zeroext i1 @_ZNK4cvc58internal15ResourceManager14outOfResourcesEv(ptr noundef nonnull readonly align 8 captures(none) dereferenceable(3392) %0) local_unnamed_addr #13 align 2 {
  %2 = getelementptr inbounds nuw i8, ptr %0, i64 8
  %3 = load i8, ptr %2, align 8, !tbaa !39, !range !280, !noundef !281
  %4 = trunc nuw i8 %3 to i1
  br i1 %4, label %5, label %22

5:                                                ; preds = %1
  %6 = load ptr, ptr %0, align 8, !tbaa !61
  %7 = getelementptr inbounds nuw i8, ptr %6, i64 224
  %8 = load ptr, ptr %7, align 8, !tbaa !62
  %9 = getelementptr inbounds nuw i8, ptr %8, i64 248
  %10 = load i64, ptr %9, align 8, !tbaa !282
  %11 = getelementptr inbounds nuw i8, ptr %0, i64 48
  %12 = load i64, ptr %11, align 8
  %13 = freeze i64 %12
  %14 = add i64 %10, -1
  %or.cond.not = icmp ult i64 %14, %13
  br i1 %or.cond.not, label %22, label %15

15:                                               ; preds = %5
  %16 = getelementptr inbounds nuw i8, ptr %8, i64 232
  %17 = load i64, ptr %16, align 8, !tbaa !278
  %18 = getelementptr inbounds nuw i8, ptr %0, i64 40
  %19 = load i64, ptr %18, align 8
  %20 = freeze i64 %19
  %21 = add i64 %17, -1
  %or.cond9.not = icmp ult i64 %21, %20
  br label %22

22:                                               ; preds = %15, %5, %1
  %.0 = phi i1 [ false, %1 ], [ true, %5 ], [ %or.cond9.not, %15 ]
  ret i1 %.0
}